; Function Attrs: nounwind uwtable
define void @PMIx_Data_array_free(ptr noundef %0) local_unnamed_addr #6 {
  %.not.i = icmp eq ptr %0, null
  br i1 %.not.i, label %pmix_bfrops_base_tma_data_array_free.exit, label %2

2:                                                ; preds = %1
  tail call fastcc void @pmix_bfrops_base_tma_data_array_destruct(ptr noundef nonnull %0)
  tail call void @free(ptr noundef nonnull %0) #44
  br label %pmix_bfrops_base_tma_data_array_free.exit

pmix_bfrops_base_tma_data_array_free.exit:        ; preds = %1, %2
  ret void
}